
./apps/elf/jump_commands.elf:     file format elf32-littleriscv


Disassembly of section .text:

00000000 <_stext>:
   0:	00000013          	nop
   4:	00000013          	nop
   8:	00000013          	nop
   c:	00000013          	nop
  10:	00000093          	li	x1,0
  14:	00000113          	li	x2,0
  18:	00000193          	li	x3,0
  1c:	00000213          	li	x4,0
  20:	00000293          	li	x5,0
  24:	00000313          	li	x6,0
  28:	00000393          	li	x7,0
  2c:	00000413          	li	x8,0
  30:	00000493          	li	x9,0
  34:	00000513          	li	x10,0
  38:	00000593          	li	x11,0
  3c:	00000613          	li	x12,0
  40:	00000693          	li	x13,0
  44:	00000713          	li	x14,0
  48:	00000793          	li	x15,0
  4c:	00000813          	li	x16,0
  50:	00000893          	li	x17,0
  54:	00000913          	li	x18,0
  58:	00000993          	li	x19,0
  5c:	00000a13          	li	x20,0
  60:	00000a93          	li	x21,0
  64:	00000b13          	li	x22,0
  68:	00000b93          	li	x23,0
  6c:	00000c13          	li	x24,0
  70:	00000c93          	li	x25,0
  74:	00000d13          	li	x26,0
  78:	00000d93          	li	x27,0
  7c:	00000e13          	li	x28,0
  80:	00000e93          	li	x29,0
  84:	00000f13          	li	x30,0
  88:	00000f93          	li	x31,0

0000008c <main>:
  8c:	00001fb7          	lui	x31,0x1
  90:	00100f13          	li	x30,1
  94:	00000e93          	li	x29,0
  98:	00100093          	li	x1,1
  9c:	00100113          	li	x2,1
  a0:	00200193          	li	x3,2
  a4:	00208663          	beq	x1,x2,b0 <LABEL_0>
  a8:	01dfa023          	sw	x29,0(x31) # 1000 <_bss_end>
  ac:	00800e6f          	jal	x28,b4 <LABEL_1>

000000b0 <LABEL_0>:
  b0:	01efa023          	sw	x30,0(x31)

000000b4 <LABEL_1>:
  b4:	00209463          	bne	x1,x2,bc <LABEL_2>
  b8:	00c000ef          	jal	x1,c4 <LABEL_3>

000000bc <LABEL_2>:
  bc:	01efa223          	sw	x30,4(x31)
  c0:	008000ef          	jal	x1,c8 <LABEL_35>

000000c4 <LABEL_3>:
  c4:	00008067          	ret

000000c8 <LABEL_35>:
  c8:	0030c663          	blt	x1,x3,d4 <LABEL_4>
  cc:	01dfa423          	sw	x29,8(x31)
  d0:	00800e6f          	jal	x28,d8 <LABEL_5>

000000d4 <LABEL_4>:
  d4:	01efa423          	sw	x30,8(x31)

000000d8 <LABEL_5>:
  d8:	0020d663          	bge	x1,x2,e4 <LABEL_6>
  dc:	01dfa623          	sw	x29,12(x31)
  e0:	00800e6f          	jal	x28,e8 <LABEL_7>

000000e4 <LABEL_6>:
  e4:	01efa623          	sw	x30,12(x31)

000000e8 <LABEL_7>:
  e8:	0030e663          	bltu	x1,x3,f4 <LABEL_8>
  ec:	01dfa823          	sw	x29,16(x31)
  f0:	00800e6f          	jal	x28,f8 <LABEL_9>

000000f4 <LABEL_8>:
  f4:	01efa823          	sw	x30,16(x31)

000000f8 <LABEL_9>:
  f8:	0020f663          	bgeu	x1,x2,104 <LABEL_10>
  fc:	01dfaa23          	sw	x29,20(x31)
 100:	00800e6f          	jal	x28,108 <LABEL_11>

00000104 <LABEL_10>:
 104:	01efaa23          	sw	x30,20(x31)

00000108 <LABEL_11>:
 108:	fffff217          	auipc	x4,0xfffff
 10c:	004fac23          	sw	x4,24(x31)

00000110 <eot>:
 110:	00000013          	nop
 114:	00000013          	nop
 118:	00000013          	nop
 11c:	00000013          	nop
 120:	00100073          	ebreak
 124:	00000013          	nop
 128:	00000013          	nop
 12c:	00000013          	nop
 130:	00000013          	nop
